(dp0
S'edc'
p1
S'Education Code'
p2
sS'uic'
p3
S'Unemployment Insurance Code'
p4
sS'wic'
p5
S'Welfare and Institutions Code'
p6
sS'pcc'
p7
S'Public Contract Code'
p8
sS'ins'
p9
S'Insurance Code'
p10
sS'rtc'
p11
S'Revenue and Taxation Code'
p12
sS'wat'
p13
S'Water Code'
p14
sS'prob'
p15
S'Probate Code'
p16
sS'shc'
p17
S'Streets and Highways Code'
p18
sS'pen'
p19
S'Penal Code'
p20
sS'gov'
p21
S'Government Code'
p22
sS'fac'
p23
S'Food and Agricultural Code'
p24
sS'prc'
p25
S'Public Resources Code'
p26
sS'veh'
p27
S'Vehicle Code'
p28
sS'hsc'
p29
S'Health and Safety Code'
p30
sS'evid'
p31
S'Evidence Code'
p32
sS'hnc'
p33
S'Harbors and Navigation Code'
p34
sS'lab'
p35
S'Labor Code'
p36
sS'puc'
p37
S'Public Utilities Code'
p38
sS'corp'
p39
S'Corporations Code'
p40
sS'fin'
p41
S'Financial Code'
p42
sS'fam'
p43
S'Family Code'
p44
sS'fgc'
p45
S'Fish and Game Code'
p46
sS'bpc'
p47
S'Business and Professions Code'
p48
sS'elec'
p49
S'Elections Code'
p50
sS'ccp'
p51
S'Code of Civil Procedure'
p52
sS'mvc'
p53
S'Military and Veterans Code'
p54
sS'civ'
p55
S'Civil Code'
p56
sS'com'
p57
S'Commercial Code'
p58
s.
